target datalayout = "e-m:e-p270:32:32-p271:32:32-p272:64:64-i64:64-f80:128-n8:16:32:64-S128"
target triple = "x86_64-pc-linux-gnu"

@.str = private unnamed_addr constant [3 x i8] c"%d\00", align 1
@.str.1 = private unnamed_addr constant [18 x i8] c"%s %d %d %c %c %d\00", align 1
@.str.2 = private unnamed_addr constant [4 x i8] c"%s\0A\00", align 1
@.str.3 = private unnamed_addr constant [4 x i8] c"%d\0A\00", align 1

; Function Attrs: noinline nounwind uwtable
define dso_local void @main() #0 {
  %1 = alloca i32, align 4
  %2 = alloca [100 x [3 x i32]], align 16
  %3 = alloca i32, align 4
  %4 = alloca [100 x i32], align 16
  %5 = alloca [100 x i32], align 16
  %6 = alloca i32, align 4
  %7 = alloca i32, align 4
  %8 = alloca [100 x [2 x i8]], align 16
  %9 = alloca [100 x [20 x i8]], align 16
  %10 = bitcast [100 x i32]* %4 to i8*
  call void @llvm.memset.p0i8.i64(i8* align 16 %10, i8 0, i64 400, i1 false)
  store i32 0, i32* %6, align 4
  %11 = call i32 (i8*, ...) @__isoc99_scanf(i8* getelementptr inbounds ([3 x i8], [3 x i8]* @.str, i64 0, i64 0), i32* %1)
  store i32 0, i32* %3, align 4
  br label %12

12:                                               ; preds = %42, %0
  %13 = load i32, i32* %3, align 4
  %14 = load i32, i32* %1, align 4
  %15 = icmp slt i32 %13, %14
  br i1 %15, label %16, label %45

16:                                               ; preds = %12
  %17 = load i32, i32* %3, align 4
  %18 = sext i32 %17 to i64
  %19 = getelementptr inbounds [100 x [20 x i8]], [100 x [20 x i8]]* %9, i64 0, i64 %18
  %20 = getelementptr inbounds [20 x i8], [20 x i8]* %19, i64 0, i64 0
  %21 = load i32, i32* %3, align 4
  %22 = sext i32 %21 to i64
  %23 = getelementptr inbounds [100 x [3 x i32]], [100 x [3 x i32]]* %2, i64 0, i64 %22
  %24 = getelementptr inbounds [3 x i32], [3 x i32]* %23, i64 0, i64 0
  %25 = load i32, i32* %3, align 4
  %26 = sext i32 %25 to i64
  %27 = getelementptr inbounds [100 x [3 x i32]], [100 x [3 x i32]]* %2, i64 0, i64 %26
  %28 = getelementptr inbounds [3 x i32], [3 x i32]* %27, i64 0, i64 1
  %29 = load i32, i32* %3, align 4
  %30 = sext i32 %29 to i64
  %31 = getelementptr inbounds [100 x [2 x i8]], [100 x [2 x i8]]* %8, i64 0, i64 %30
  %32 = getelementptr inbounds [2 x i8], [2 x i8]* %31, i64 0, i64 0
  %33 = load i32, i32* %3, align 4
  %34 = sext i32 %33 to i64
  %35 = getelementptr inbounds [100 x [2 x i8]], [100 x [2 x i8]]* %8, i64 0, i64 %34
  %36 = getelementptr inbounds [2 x i8], [2 x i8]* %35, i64 0, i64 1
  %37 = load i32, i32* %3, align 4
  %38 = sext i32 %37 to i64
  %39 = getelementptr inbounds [100 x [3 x i32]], [100 x [3 x i32]]* %2, i64 0, i64 %38
  %40 = getelementptr inbounds [3 x i32], [3 x i32]* %39, i64 0, i64 2
  %41 = call i32 (i8*, ...) @__isoc99_scanf(i8* getelementptr inbounds ([18 x i8], [18 x i8]* @.str.1, i64 0, i64 0), i8* %20, i32* %24, i32* %28, i8* %32, i8* %36, i32* %40)
  br label %42

42:                                               ; preds = %16
  %43 = load i32, i32* %3, align 4
  %44 = add nsw i32 %43, 1
  store i32 %44, i32* %3, align 4
  br label %12

45:                                               ; preds = %12
  store i32 0, i32* %3, align 4
  br label %46

46:                                               ; preds = %167, %45
  %47 = load i32, i32* %3, align 4
  %48 = load i32, i32* %1, align 4
  %49 = icmp slt i32 %47, %48
  br i1 %49, label %50, label %170

50:                                               ; preds = %46
  %51 = load i32, i32* %3, align 4
  %52 = sext i32 %51 to i64
  %53 = getelementptr inbounds [100 x [3 x i32]], [100 x [3 x i32]]* %2, i64 0, i64 %52
  %54 = getelementptr inbounds [3 x i32], [3 x i32]* %53, i64 0, i64 0
  %55 = load i32, i32* %54, align 4
  %56 = icmp sgt i32 %55, 80
  br i1 %56, label %57, label %73

57:                                               ; preds = %50
  %58 = load i32, i32* %3, align 4
  %59 = sext i32 %58 to i64
  %60 = getelementptr inbounds [100 x [3 x i32]], [100 x [3 x i32]]* %2, i64 0, i64 %59
  %61 = getelementptr inbounds [3 x i32], [3 x i32]* %60, i64 0, i64 2
  %62 = load i32, i32* %61, align 4
  %63 = icmp sgt i32 %62, 0
  br i1 %63, label %64, label %73

64:                                               ; preds = %57
  %65 = load i32, i32* %3, align 4
  %66 = sext i32 %65 to i64
  %67 = getelementptr inbounds [100 x i32], [100 x i32]* %4, i64 0, i64 %66
  %68 = load i32, i32* %67, align 4
  %69 = add nsw i32 %68, 8000
  %70 = load i32, i32* %3, align 4
  %71 = sext i32 %70 to i64
  %72 = getelementptr inbounds [100 x i32], [100 x i32]* %4, i64 0, i64 %71
  store i32 %69, i32* %72, align 4
  br label %73

73:                                               ; preds = %64, %57, %50
  %74 = load i32, i32* %3, align 4
  %75 = sext i32 %74 to i64
  %76 = getelementptr inbounds [100 x [3 x i32]], [100 x [3 x i32]]* %2, i64 0, i64 %75
  %77 = getelementptr inbounds [3 x i32], [3 x i32]* %76, i64 0, i64 0
  %78 = load i32, i32* %77, align 4
  %79 = icmp sgt i32 %78, 85
  br i1 %79, label %80, label %96

80:                                               ; preds = %73
  %81 = load i32, i32* %3, align 4
  %82 = sext i32 %81 to i64
  %83 = getelementptr inbounds [100 x [3 x i32]], [100 x [3 x i32]]* %2, i64 0, i64 %82
  %84 = getelementptr inbounds [3 x i32], [3 x i32]* %83, i64 0, i64 1
  %85 = load i32, i32* %84, align 4
  %86 = icmp sgt i32 %85, 80
  br i1 %86, label %87, label %96

87:                                               ; preds = %80
  %88 = load i32, i32* %3, align 4
  %89 = sext i32 %88 to i64
  %90 = getelementptr inbounds [100 x i32], [100 x i32]* %4, i64 0, i64 %89
  %91 = load i32, i32* %90, align 4
  %92 = add nsw i32 %91, 4000
  %93 = load i32, i32* %3, align 4
  %94 = sext i32 %93 to i64
  %95 = getelementptr inbounds [100 x i32], [100 x i32]* %4, i64 0, i64 %94
  store i32 %92, i32* %95, align 4
  br label %96

96:                                               ; preds = %87, %80, %73
  %97 = load i32, i32* %3, align 4
  %98 = sext i32 %97 to i64
  %99 = getelementptr inbounds [100 x [3 x i32]], [100 x [3 x i32]]* %2, i64 0, i64 %98
  %100 = getelementptr inbounds [3 x i32], [3 x i32]* %99, i64 0, i64 0
  %101 = load i32, i32* %100, align 4
  %102 = icmp sgt i32 %101, 90
  br i1 %102, label %103, label %112

103:                                              ; preds = %96
  %104 = load i32, i32* %3, align 4
  %105 = sext i32 %104 to i64
  %106 = getelementptr inbounds [100 x i32], [100 x i32]* %4, i64 0, i64 %105
  %107 = load i32, i32* %106, align 4
  %108 = add nsw i32 %107, 2000
  %109 = load i32, i32* %3, align 4
  %110 = sext i32 %109 to i64
  %111 = getelementptr inbounds [100 x i32], [100 x i32]* %4, i64 0, i64 %110
  store i32 %108, i32* %111, align 4
  br label %112

112:                                              ; preds = %103, %96
  %113 = load i32, i32* %3, align 4
  %114 = sext i32 %113 to i64
  %115 = getelementptr inbounds [100 x [3 x i32]], [100 x [3 x i32]]* %2, i64 0, i64 %114
  %116 = getelementptr inbounds [3 x i32], [3 x i32]* %115, i64 0, i64 0
  %117 = load i32, i32* %116, align 4
  %118 = icmp sgt i32 %117, 85
  br i1 %118, label %119, label %136

119:                                              ; preds = %112
  %120 = load i32, i32* %3, align 4
  %121 = sext i32 %120 to i64
  %122 = getelementptr inbounds [100 x [2 x i8]], [100 x [2 x i8]]* %8, i64 0, i64 %121
  %123 = getelementptr inbounds [2 x i8], [2 x i8]* %122, i64 0, i64 1
  %124 = load i8, i8* %123, align 1
  %125 = sext i8 %124 to i32
  %126 = icmp eq i32 %125, 89
  br i1 %126, label %127, label %136

127:                                              ; preds = %119
  %128 = load i32, i32* %3, align 4
  %129 = sext i32 %128 to i64
  %130 = getelementptr inbounds [100 x i32], [100 x i32]* %4, i64 0, i64 %129
  %131 = load i32, i32* %130, align 4
  %132 = add nsw i32 %131, 1000
  %133 = load i32, i32* %3, align 4
  %134 = sext i32 %133 to i64
  %135 = getelementptr inbounds [100 x i32], [100 x i32]* %4, i64 0, i64 %134
  store i32 %132, i32* %135, align 4
  br label %136

136:                                              ; preds = %127, %119, %112
  %137 = load i32, i32* %3, align 4
  %138 = sext i32 %137 to i64
  %139 = getelementptr inbounds [100 x [3 x i32]], [100 x [3 x i32]]* %2, i64 0, i64 %138
  %140 = getelementptr inbounds [3 x i32], [3 x i32]* %139, i64 0, i64 1
  %141 = load i32, i32* %140, align 4
  %142 = icmp sgt i32 %141, 80
  br i1 %142, label %143, label %160

143:                                              ; preds = %136
  %144 = load i32, i32* %3, align 4
  %145 = sext i32 %144 to i64
  %146 = getelementptr inbounds [100 x [2 x i8]], [100 x [2 x i8]]* %8, i64 0, i64 %145
  %147 = getelementptr inbounds [2 x i8], [2 x i8]* %146, i64 0, i64 0
  %148 = load i8, i8* %147, align 2
  %149 = sext i8 %148 to i32
  %150 = icmp eq i32 %149, 89
  br i1 %150, label %151, label %160

151:                                              ; preds = %143
  %152 = load i32, i32* %3, align 4
  %153 = sext i32 %152 to i64
  %154 = getelementptr inbounds [100 x i32], [100 x i32]* %4, i64 0, i64 %153
  %155 = load i32, i32* %154, align 4
  %156 = add nsw i32 %155, 850
  %157 = load i32, i32* %3, align 4
  %158 = sext i32 %157 to i64
  %159 = getelementptr inbounds [100 x i32], [100 x i32]* %4, i64 0, i64 %158
  store i32 %156, i32* %159, align 4
  br label %160

160:                                              ; preds = %151, %143, %136
  %161 = load i32, i32* %6, align 4
  %162 = load i32, i32* %3, align 4
  %163 = sext i32 %162 to i64
  %164 = getelementptr inbounds [100 x i32], [100 x i32]* %4, i64 0, i64 %163
  %165 = load i32, i32* %164, align 4
  %166 = add nsw i32 %161, %165
  store i32 %166, i32* %6, align 4
  br label %167

167:                                              ; preds = %160
  %168 = load i32, i32* %3, align 4
  %169 = add nsw i32 %168, 1
  store i32 %169, i32* %3, align 4
  br label %46

170:                                              ; preds = %46
  store i32 0, i32* %3, align 4
  br label %171

171:                                              ; preds = %183, %170
  %172 = load i32, i32* %3, align 4
  %173 = load i32, i32* %1, align 4
  %174 = icmp slt i32 %172, %173
  br i1 %174, label %175, label %186

175:                                              ; preds = %171
  %176 = load i32, i32* %3, align 4
  %177 = sext i32 %176 to i64
  %178 = getelementptr inbounds [100 x i32], [100 x i32]* %4, i64 0, i64 %177
  %179 = load i32, i32* %178, align 4
  %180 = load i32, i32* %3, align 4
  %181 = sext i32 %180 to i64
  %182 = getelementptr inbounds [100 x i32], [100 x i32]* %5, i64 0, i64 %181
  store i32 %179, i32* %182, align 4
  br label %183

183:                                              ; preds = %175
  %184 = load i32, i32* %3, align 4
  %185 = add nsw i32 %184, 1
  store i32 %185, i32* %3, align 4
  br label %171

186:                                              ; preds = %171
  store i32 0, i32* %3, align 4
  br label %187

187:                                              ; preds = %222, %186
  %188 = load i32, i32* %3, align 4
  %189 = load i32, i32* %1, align 4
  %190 = sub nsw i32 %189, 1
  %191 = icmp slt i32 %188, %190
  br i1 %191, label %192, label %225

192:                                              ; preds = %187
  %193 = load i32, i32* %3, align 4
  %194 = sext i32 %193 to i64
  %195 = getelementptr inbounds [100 x i32], [100 x i32]* %5, i64 0, i64 %194
  %196 = load i32, i32* %195, align 4
  %197 = load i32, i32* %3, align 4
  %198 = add nsw i32 %197, 1
  %199 = sext i32 %198 to i64
  %200 = getelementptr inbounds [100 x i32], [100 x i32]* %5, i64 0, i64 %199
  %201 = load i32, i32* %200, align 4
  %202 = icmp sgt i32 %196, %201
  br i1 %202, label %203, label %221

203:                                              ; preds = %192
  %204 = load i32, i32* %3, align 4
  %205 = sext i32 %204 to i64
  %206 = getelementptr inbounds [100 x i32], [100 x i32]* %5, i64 0, i64 %205
  %207 = load i32, i32* %206, align 4
  store i32 %207, i32* %7, align 4
  %208 = load i32, i32* %3, align 4
  %209 = add nsw i32 %208, 1
  %210 = sext i32 %209 to i64
  %211 = getelementptr inbounds [100 x i32], [100 x i32]* %5, i64 0, i64 %210
  %212 = load i32, i32* %211, align 4
  %213 = load i32, i32* %3, align 4
  %214 = sext i32 %213 to i64
  %215 = getelementptr inbounds [100 x i32], [100 x i32]* %5, i64 0, i64 %214
  store i32 %212, i32* %215, align 4
  %216 = load i32, i32* %7, align 4
  %217 = load i32, i32* %3, align 4
  %218 = add nsw i32 %217, 1
  %219 = sext i32 %218 to i64
  %220 = getelementptr inbounds [100 x i32], [100 x i32]* %5, i64 0, i64 %219
  store i32 %216, i32* %220, align 4
  br label %221

221:                                              ; preds = %203, %192
  br label %222

222:                                              ; preds = %221
  %223 = load i32, i32* %3, align 4
  %224 = add nsw i32 %223, 1
  store i32 %224, i32* %3, align 4
  br label %187

225:                                              ; preds = %187
  store i32 0, i32* %3, align 4
  br label %226

226:                                              ; preds = %255, %225
  %227 = load i32, i32* %3, align 4
  %228 = load i32, i32* %1, align 4
  %229 = icmp slt i32 %227, %228
  br i1 %229, label %230, label %258

230:                                              ; preds = %226
  %231 = load i32, i32* %3, align 4
  %232 = sext i32 %231 to i64
  %233 = getelementptr inbounds [100 x i32], [100 x i32]* %4, i64 0, i64 %232
  %234 = load i32, i32* %233, align 4
  %235 = load i32, i32* %1, align 4
  %236 = sub nsw i32 %235, 1
  %237 = sext i32 %236 to i64
  %238 = getelementptr inbounds [100 x i32], [100 x i32]* %5, i64 0, i64 %237
  %239 = load i32, i32* %238, align 4
  %240 = icmp eq i32 %234, %239
  br i1 %240, label %241, label %254

241:                                              ; preds = %230
  %242 = load i32, i32* %3, align 4
  %243 = sext i32 %242 to i64
  %244 = getelementptr inbounds [100 x [20 x i8]], [100 x [20 x i8]]* %9, i64 0, i64 %243
  %245 = getelementptr inbounds [20 x i8], [20 x i8]* %244, i64 0, i64 0
  %246 = call i32 (i8*, ...) @printf(i8* getelementptr inbounds ([4 x i8], [4 x i8]* @.str.2, i64 0, i64 0), i8* %245)
  %247 = load i32, i32* %3, align 4
  %248 = sext i32 %247 to i64
  %249 = getelementptr inbounds [100 x i32], [100 x i32]* %4, i64 0, i64 %248
  %250 = load i32, i32* %249, align 4
  %251 = call i32 (i8*, ...) @printf(i8* getelementptr inbounds ([4 x i8], [4 x i8]* @.str.3, i64 0, i64 0), i32 %250)
  %252 = load i32, i32* %6, align 4
  %253 = call i32 (i8*, ...) @printf(i8* getelementptr inbounds ([3 x i8], [3 x i8]* @.str, i64 0, i64 0), i32 %252)
  br label %258

254:                                              ; preds = %230
  br label %255

255:                                              ; preds = %254
  %256 = load i32, i32* %3, align 4
  %257 = add nsw i32 %256, 1
  store i32 %257, i32* %3, align 4
  br label %226

258:                                              ; preds = %241, %226
  ret void
}